; Function Attrs: mustprogress uwtable
define hidden void @_ZN3opt10opt_solver14get_model_coreER3refI5modelE(ptr noundef nonnull readonly align 8 captures(none) dereferenceable(1042) %0, ptr noundef nonnull align 8 captures(none) dereferenceable(8) %1) unnamed_addr #4 align 2 {
  %3 = getelementptr inbounds nuw i8, ptr %0, i64 968
  %4 = load ptr, ptr %3, align 8, !tbaa !288
  %.not = icmp eq ptr %4, null
  br i1 %.not, label %15, label %5

5:                                                ; preds = %2
  %6 = getelementptr inbounds nuw i8, ptr %4, i64 16
  %7 = load i32, ptr %6, align 8, !tbaa !273
  %8 = add i32 %7, 1
  store i32 %8, ptr %6, align 8, !tbaa !273
  %9 = load ptr, ptr %1, align 8, !tbaa !288
  %.not.i.i = icmp eq ptr %9, null
  br i1 %.not.i.i, label %_ZN3refI5modelEaSEPS0_.exit, label %10

10:                                               ; preds = %5
  %11 = getelementptr inbounds nuw i8, ptr %9, i64 16
  %12 = load i32, ptr %11, align 8, !tbaa !273
  %13 = add i32 %12, -1
  store i32 %13, ptr %11, align 8, !tbaa !273
  %14 = icmp eq i32 %13, 0
  br i1 %14, label %_ZN3refI5modelEaSEPS0_.exit.sink.split, label %_ZN3refI5modelEaSEPS0_.exit

15:                                               ; preds = %2
  %16 = getelementptr inbounds nuw i8, ptr %0, i64 992
  %17 = load ptr, ptr %16, align 8, !tbaa !271
  %18 = icmp eq ptr %17, null
  br i1 %18, label %.critedge.preheader, label %19

19:                                               ; preds = %15
  %20 = getelementptr inbounds i8, ptr %17, i64 -4
  %21 = load i32, ptr %20, align 4, !tbaa !263
  %22 = zext i32 %21 to i64
  br label %.critedge.preheader

.critedge.preheader:                              ; preds = %15, %19
  %indvars.iv.ph = phi i64 [ 0, %15 ], [ %22, %19 ]
  br label %.critedge

.critedge:                                        ; preds = %.critedge.preheader, %23
  %indvars.iv = phi i64 [ %24, %23 ], [ %indvars.iv.ph, %.critedge.preheader ]
  %.not11 = icmp eq i64 %indvars.iv, 0
  br i1 %.not11, label %37, label %23

23:                                               ; preds = %.critedge
  %24 = add nsw i64 %indvars.iv, -1
  %25 = getelementptr inbounds nuw ptr, ptr %17, i64 %24
  %26 = load ptr, ptr %25, align 8, !tbaa !272
  %.not12 = icmp eq ptr %26, null
  br i1 %.not12, label %.critedge, label %27

27:                                               ; preds = %23
  %28 = getelementptr inbounds nuw i8, ptr %26, i64 16
  %29 = load i32, ptr %28, align 8, !tbaa !273
  %30 = add i32 %29, 1
  store i32 %30, ptr %28, align 8, !tbaa !273
  %31 = load ptr, ptr %1, align 8, !tbaa !288
  %.not.i.i14 = icmp eq ptr %31, null
  br i1 %.not.i.i14, label %_ZN3refI5modelEaSEPS0_.exit, label %32

32:                                               ; preds = %27
  %33 = getelementptr inbounds nuw i8, ptr %31, i64 16
  %34 = load i32, ptr %33, align 8, !tbaa !273
  %35 = add i32 %34, -1
  store i32 %35, ptr %33, align 8, !tbaa !273
  %36 = icmp eq i32 %35, 0
  br i1 %36, label %_ZN3refI5modelEaSEPS0_.exit.sink.split, label %_ZN3refI5modelEaSEPS0_.exit

37:                                               ; preds = %.critedge
  %38 = load ptr, ptr %1, align 8, !tbaa !288
  %.not.i.i17 = icmp eq ptr %38, null
  br i1 %.not.i.i17, label %_ZN3refI5modelEaSEPS0_.exit, label %39

39:                                               ; preds = %37
  %40 = getelementptr inbounds nuw i8, ptr %38, i64 16
  %41 = load i32, ptr %40, align 8, !tbaa !273
  %42 = add i32 %41, -1
  store i32 %42, ptr %40, align 8, !tbaa !273
  %43 = icmp eq i32 %42, 0
  br i1 %43, label %_ZN3refI5modelEaSEPS0_.exit.sink.split, label %_ZN3refI5modelEaSEPS0_.exit

_ZN3refI5modelEaSEPS0_.exit.sink.split:           ; preds = %39, %32, %10
  %.sink26 = phi ptr [ %9, %10 ], [ %31, %32 ], [ %38, %39 ]
  %.lcssa.sink.ph = phi ptr [ %4, %10 ], [ %26, %32 ], [ null, %39 ]
  %44 = load ptr, ptr %.sink26, align 8, !tbaa !3
  %45 = load ptr, ptr %44, align 8
  tail call void %45(ptr noundef nonnull align 8 dereferenceable(96) %.sink26) #26
  tail call void @_ZN6memory10deallocateEPv(ptr noundef nonnull align 8 dereferenceable(96) %.sink26)
  br label %_ZN3refI5modelEaSEPS0_.exit

_ZN3refI5modelEaSEPS0_.exit:                      ; preds = %_ZN3refI5modelEaSEPS0_.exit.sink.split, %39, %37, %27, %32, %10, %5
  %.lcssa.sink = phi ptr [ %4, %5 ], [ %4, %10 ], [ %26, %32 ], [ %26, %27 ], [ null, %37 ], [ null, %39 ], [ %.lcssa.sink.ph, %_ZN3refI5modelEaSEPS0_.exit.sink.split ]
  store ptr %.lcssa.sink, ptr %1, align 8, !tbaa !288
  ret void
}